; Function Attrs: nounwind uwtable
define void @SUNLogErrHandlerFn(i32 noundef %0, ptr noundef %1, ptr noundef %2, ptr noundef %3, i32 noundef %4, ptr noundef readnone captures(none) %5, ptr noundef readonly captures(none) %6) local_unnamed_addr #6 {
  %8 = tail call i64 @strlen(ptr noundef nonnull dereferenceable(1) %2) #18
  %9 = add i64 %8, 6
  %10 = tail call noalias ptr @malloc(i64 noundef %9) #16
  %11 = tail call i32 (ptr, i64, ptr, ...) @snprintf(ptr noundef %10, i64 noundef %9, ptr noundef nonnull @.str.30, ptr noundef nonnull %2, i32 noundef %0) #17
  %12 = icmp eq ptr %3, null
  br i1 %12, label %13, label %SUNGetErrMsg.exit

13:                                               ; preds = %7
  %switch.tableidx = add i32 %4, 9999
  %14 = icmp ult i32 %switch.tableidx, 25
  br i1 %14, label %switch.lookup, label %SUNGetErrMsg.exit

switch.lookup:                                    ; preds = %13
  %15 = zext nneg i32 %switch.tableidx to i64
  %switch.gep = getelementptr inbounds nuw [25 x ptr], ptr @switch.table.SUNGlobalFallbackErrHandler, i64 0, i64 %15
  %switch.load = load ptr, ptr %switch.gep, align 8
  br label %SUNGetErrMsg.exit

SUNGetErrMsg.exit:                                ; preds = %13, %switch.lookup, %7
  %.0 = phi ptr [ %3, %7 ], [ %switch.load, %switch.lookup ], [ @.str.25, %13 ]
  %16 = getelementptr inbounds nuw i8, ptr %6, i64 16
  %17 = load ptr, ptr %16, align 8, !tbaa !12
  %18 = tail call i32 (ptr, i32, ptr, ptr, ptr, ...) @SUNLogger_QueueMsg(ptr noundef %17, i32 noundef 1, ptr noundef %10, ptr noundef %1, ptr noundef nonnull %.0) #17
  tail call void @free(ptr noundef %10) #17
  ret void
}